target datalayout = "e-m:e-p270:32:32-p271:32:32-p272:64:64-i64:64-i128:128-f80:128-n8:16:32:64-S128"
target triple = "x86_64-pc-linux-gnu"

%struct.UConverterToUnicodeArgs = type { i16, i8, ptr, ptr, ptr, ptr, ptr, ptr }
%struct.UConverter = type { ptr, ptr, ptr, ptr, ptr, ptr, ptr, i32, i8, i8, i8, i8, i8, [7 x i8], i32, i32, i32, i32, i8, i8, i8, i8, i8, i8, i8, i8, [8 x i8], [32 x i8], [2 x i16], [2 x i16], [32 x i16], i32, [19 x i16], [31 x i8], i8, i8, i8, i32 }

; Function Attrs: inlinehint mustprogress nounwind uwtable
define internal noundef signext i8 @_ZL9U_SUCCESS10UErrorCode(i32 noundef %0) #4 {
  %2 = alloca i32, align 4
  store i32 %0, ptr %2, align 4, !tbaa !33
  %3 = load i32, ptr %2, align 4, !tbaa !33
  %4 = icmp sle i32 %3, 0
  %5 = zext i1 %4 to i8
  ret i8 %5
}

; Function Attrs: mustprogress nounwind uwtable
define internal void @_ZL44T_UConverter_toUnicode_UTF32_LE_OFFSET_LOGICP23UConverterToUnicodeArgsP10UErrorCode(ptr noundef %0, ptr noundef %1) #1 {
  %3 = alloca ptr, align 8
  %4 = alloca ptr, align 8
  %5 = alloca ptr, align 8
  %6 = alloca ptr, align 8
  %7 = alloca ptr, align 8
  %8 = alloca ptr, align 8
  %9 = alloca ptr, align 8
  %10 = alloca ptr, align 8
  %11 = alloca i32, align 4
  %12 = alloca i32, align 4
  %13 = alloca i32, align 4
  store ptr %0, ptr %3, align 8, !tbaa !3
  store ptr %1, ptr %4, align 8, !tbaa !3
  call void @llvm.lifetime.start.p0(i64 8, ptr %5) #6
  %14 = load ptr, ptr %3, align 8, !tbaa !3
  %15 = getelementptr inbounds nuw %struct.UConverterToUnicodeArgs, ptr %14, i32 0, i32 3
  %16 = load ptr, ptr %15, align 8, !tbaa !7
  store ptr %16, ptr %5, align 8, !tbaa !14
  call void @llvm.lifetime.start.p0(i64 8, ptr %6) #6
  %17 = load ptr, ptr %3, align 8, !tbaa !3
  %18 = getelementptr inbounds nuw %struct.UConverterToUnicodeArgs, ptr %17, i32 0, i32 5
  %19 = load ptr, ptr %18, align 8, !tbaa !15
  store ptr %19, ptr %6, align 8, !tbaa !16
  call void @llvm.lifetime.start.p0(i64 8, ptr %7) #6
  %20 = load ptr, ptr %3, align 8, !tbaa !3
  %21 = getelementptr inbounds nuw %struct.UConverterToUnicodeArgs, ptr %20, i32 0, i32 7
  %22 = load ptr, ptr %21, align 8, !tbaa !36
  store ptr %22, ptr %7, align 8, !tbaa !37
  call void @llvm.lifetime.start.p0(i64 8, ptr %8) #6
  %23 = load ptr, ptr %3, align 8, !tbaa !3
  %24 = getelementptr inbounds nuw %struct.UConverterToUnicodeArgs, ptr %23, i32 0, i32 4
  %25 = load ptr, ptr %24, align 8, !tbaa !17
  store ptr %25, ptr %8, align 8, !tbaa !14
  call void @llvm.lifetime.start.p0(i64 8, ptr %9) #6
  %26 = load ptr, ptr %3, align 8, !tbaa !3
  %27 = getelementptr inbounds nuw %struct.UConverterToUnicodeArgs, ptr %26, i32 0, i32 6
  %28 = load ptr, ptr %27, align 8, !tbaa !18
  store ptr %28, ptr %9, align 8, !tbaa !16
  call void @llvm.lifetime.start.p0(i64 8, ptr %10) #6
  %29 = load ptr, ptr %3, align 8, !tbaa !3
  %30 = getelementptr inbounds nuw %struct.UConverterToUnicodeArgs, ptr %29, i32 0, i32 2
  %31 = load ptr, ptr %30, align 8, !tbaa !19
  %32 = getelementptr inbounds nuw %struct.UConverter, ptr %31, i32 0, i32 13
  %33 = getelementptr inbounds [7 x i8], ptr %32, i64 0, i64 0
  store ptr %33, ptr %10, align 8, !tbaa !14
  call void @llvm.lifetime.start.p0(i64 4, ptr %11) #6
  call void @llvm.lifetime.start.p0(i64 4, ptr %12) #6
  call void @llvm.lifetime.start.p0(i64 4, ptr %13) #6
  store i32 0, ptr %13, align 4, !tbaa !25
  %34 = load ptr, ptr %3, align 8, !tbaa !3
  %35 = getelementptr inbounds nuw %struct.UConverterToUnicodeArgs, ptr %34, i32 0, i32 2
  %36 = load ptr, ptr %35, align 8, !tbaa !19
  %37 = getelementptr inbounds nuw %struct.UConverter, ptr %36, i32 0, i32 12
  %38 = load i8, ptr %37, align 8, !tbaa !20
  %39 = sext i8 %38 to i32
  %40 = icmp sgt i32 %39, 0
  br i1 %40, label %41, label %66

41:                                               ; preds = %2
  %42 = load ptr, ptr %6, align 8, !tbaa !16
  %43 = load ptr, ptr %9, align 8, !tbaa !16
  %44 = icmp ult ptr %42, %43
  br i1 %44, label %45, label %66

45:                                               ; preds = %41
  %46 = load ptr, ptr %3, align 8, !tbaa !3
  %47 = getelementptr inbounds nuw %struct.UConverterToUnicodeArgs, ptr %46, i32 0, i32 2
  %48 = load ptr, ptr %47, align 8, !tbaa !19
  %49 = getelementptr inbounds nuw %struct.UConverter, ptr %48, i32 0, i32 12
  %50 = load i8, ptr %49, align 8, !tbaa !20
  %51 = sext i8 %50 to i32
  store i32 %51, ptr %12, align 4, !tbaa !25
  %52 = load ptr, ptr %3, align 8, !tbaa !3
  %53 = getelementptr inbounds nuw %struct.UConverterToUnicodeArgs, ptr %52, i32 0, i32 2
  %54 = load ptr, ptr %53, align 8, !tbaa !19
  %55 = getelementptr inbounds nuw %struct.UConverter, ptr %54, i32 0, i32 12
  store i8 0, ptr %55, align 8, !tbaa !20
  %56 = load ptr, ptr %3, align 8, !tbaa !3
  %57 = getelementptr inbounds nuw %struct.UConverterToUnicodeArgs, ptr %56, i32 0, i32 2
  %58 = load ptr, ptr %57, align 8, !tbaa !19
  %59 = getelementptr inbounds nuw %struct.UConverter, ptr %58, i32 0, i32 14
  %60 = load i32, ptr %59, align 8, !tbaa !26
  %61 = sub i32 %60, 1
  store i32 %61, ptr %11, align 4, !tbaa !25
  %62 = load ptr, ptr %3, align 8, !tbaa !3
  %63 = getelementptr inbounds nuw %struct.UConverterToUnicodeArgs, ptr %62, i32 0, i32 2
  %64 = load ptr, ptr %63, align 8, !tbaa !19
  %65 = getelementptr inbounds nuw %struct.UConverter, ptr %64, i32 0, i32 14
  store i32 0, ptr %65, align 8, !tbaa !26
  br label %78

66:                                               ; preds = %41, %2
  br label %67

67:                                               ; preds = %185, %66
  %68 = load ptr, ptr %5, align 8, !tbaa !14
  %69 = load ptr, ptr %8, align 8, !tbaa !14
  %70 = icmp ult ptr %68, %69
  br i1 %70, label %71, label %75

71:                                               ; preds = %67
  %72 = load ptr, ptr %6, align 8, !tbaa !16
  %73 = load ptr, ptr %9, align 8, !tbaa !16
  %74 = icmp ult ptr %72, %73
  br label %75

75:                                               ; preds = %71, %67
  %76 = phi i1 [ false, %67 ], [ %74, %71 ]
  br i1 %76, label %77, label %189

77:                                               ; preds = %75
  store i32 0, ptr %12, align 4, !tbaa !25
  store i32 0, ptr %11, align 4, !tbaa !25
  br label %78

78:                                               ; preds = %77, %45
  br label %79

79:                                               ; preds = %117, %78
  %80 = load i32, ptr %12, align 4, !tbaa !25
  %81 = zext i32 %80 to i64
  %82 = icmp ult i64 %81, 4
  br i1 %82, label %83, label %118

83:                                               ; preds = %79
  %84 = load ptr, ptr %5, align 8, !tbaa !14
  %85 = load ptr, ptr %8, align 8, !tbaa !14
  %86 = icmp ult ptr %84, %85
  br i1 %86, label %87, label %104

87:                                               ; preds = %83
  %88 = load ptr, ptr %5, align 8, !tbaa !14
  %89 = load i8, ptr %88, align 1, !tbaa !27
  %90 = zext i8 %89 to i32
  %91 = load i32, ptr %12, align 4, !tbaa !25
  %92 = mul i32 %91, 8
  %93 = shl i32 %90, %92
  %94 = load i32, ptr %11, align 4, !tbaa !25
  %95 = or i32 %94, %93
  store i32 %95, ptr %11, align 4, !tbaa !25
  %96 = load ptr, ptr %5, align 8, !tbaa !14
  %97 = getelementptr inbounds nuw i8, ptr %96, i32 1
  store ptr %97, ptr %5, align 8, !tbaa !14
  %98 = load i8, ptr %96, align 1, !tbaa !27
  %99 = load ptr, ptr %10, align 8, !tbaa !14
  %100 = load i32, ptr %12, align 4, !tbaa !25
  %101 = add i32 %100, 1
  store i32 %101, ptr %12, align 4, !tbaa !25
  %102 = zext i32 %100 to i64
  %103 = getelementptr inbounds nuw i8, ptr %99, i64 %102
  store i8 %98, ptr %103, align 1, !tbaa !27
  br label %117

104:                                              ; preds = %83
  %105 = load i32, ptr %11, align 4, !tbaa !25
  %106 = add i32 %105, 1
  %107 = load ptr, ptr %3, align 8, !tbaa !3
  %108 = getelementptr inbounds nuw %struct.UConverterToUnicodeArgs, ptr %107, i32 0, i32 2
  %109 = load ptr, ptr %108, align 8, !tbaa !19
  %110 = getelementptr inbounds nuw %struct.UConverter, ptr %109, i32 0, i32 14
  store i32 %106, ptr %110, align 8, !tbaa !26
  %111 = load i32, ptr %12, align 4, !tbaa !25
  %112 = trunc i32 %111 to i8
  %113 = load ptr, ptr %3, align 8, !tbaa !3
  %114 = getelementptr inbounds nuw %struct.UConverterToUnicodeArgs, ptr %113, i32 0, i32 2
  %115 = load ptr, ptr %114, align 8, !tbaa !19
  %116 = getelementptr inbounds nuw %struct.UConverter, ptr %115, i32 0, i32 12
  store i8 %112, ptr %116, align 8, !tbaa !20
  br label %190

117:                                              ; preds = %87
  br label %79, !llvm.loop !57

118:                                              ; preds = %79
  %119 = load i32, ptr %11, align 4, !tbaa !25
  %120 = icmp ule i32 %119, 1114111
  br i1 %120, label %121, label %177

121:                                              ; preds = %118
  %122 = load i32, ptr %11, align 4, !tbaa !25
  %123 = and i32 %122, -2048
  %124 = icmp eq i32 %123, 55296
  br i1 %124, label %177, label %125

125:                                              ; preds = %121
  %126 = load i32, ptr %11, align 4, !tbaa !25
  %127 = icmp ule i32 %126, 65535
  br i1 %127, label %128, label %136

128:                                              ; preds = %125
  %129 = load i32, ptr %11, align 4, !tbaa !25
  %130 = trunc i32 %129 to i16
  %131 = load ptr, ptr %6, align 8, !tbaa !16
  %132 = getelementptr inbounds nuw i16, ptr %131, i32 1
  store ptr %132, ptr %6, align 8, !tbaa !16
  store i16 %130, ptr %131, align 2, !tbaa !30
  %133 = load i32, ptr %13, align 4, !tbaa !25
  %134 = load ptr, ptr %7, align 8, !tbaa !37
  %135 = getelementptr inbounds nuw i32, ptr %134, i32 1
  store ptr %135, ptr %7, align 8, !tbaa !37
  store i32 %133, ptr %134, align 4, !tbaa !25
  br label %176

136:                                              ; preds = %125
  %137 = load i32, ptr %11, align 4, !tbaa !25
  %138 = lshr i32 %137, 10
  %139 = add i32 %138, 55232
  %140 = trunc i32 %139 to i16
  %141 = load ptr, ptr %6, align 8, !tbaa !16
  %142 = getelementptr inbounds nuw i16, ptr %141, i32 1
  store ptr %142, ptr %6, align 8, !tbaa !16
  store i16 %140, ptr %141, align 2, !tbaa !30
  %143 = load i32, ptr %13, align 4, !tbaa !25
  %144 = load ptr, ptr %7, align 8, !tbaa !37
  %145 = getelementptr inbounds nuw i32, ptr %144, i32 1
  store ptr %145, ptr %7, align 8, !tbaa !37
  store i32 %143, ptr %144, align 4, !tbaa !25
  %146 = load i32, ptr %11, align 4, !tbaa !25
  %147 = and i32 %146, 1023
  %148 = or i32 %147, 56320
  %149 = trunc i32 %148 to i16
  %150 = zext i16 %149 to i32
  store i32 %150, ptr %11, align 4, !tbaa !25
  %151 = load ptr, ptr %6, align 8, !tbaa !16
  %152 = load ptr, ptr %9, align 8, !tbaa !16
  %153 = icmp ult ptr %151, %152
  br i1 %153, label %154, label %162

154:                                              ; preds = %136
  %155 = load i32, ptr %11, align 4, !tbaa !25
  %156 = trunc i32 %155 to i16
  %157 = load ptr, ptr %6, align 8, !tbaa !16
  %158 = getelementptr inbounds nuw i16, ptr %157, i32 1
  store ptr %158, ptr %6, align 8, !tbaa !16
  store i16 %156, ptr %157, align 2, !tbaa !30
  %159 = load i32, ptr %13, align 4, !tbaa !25
  %160 = load ptr, ptr %7, align 8, !tbaa !37
  %161 = getelementptr inbounds nuw i32, ptr %160, i32 1
  store ptr %161, ptr %7, align 8, !tbaa !37
  store i32 %159, ptr %160, align 4, !tbaa !25
  br label %175

162:                                              ; preds = %136
  %163 = load i32, ptr %11, align 4, !tbaa !25
  %164 = trunc i32 %163 to i16
  %165 = load ptr, ptr %3, align 8, !tbaa !3
  %166 = getelementptr inbounds nuw %struct.UConverterToUnicodeArgs, ptr %165, i32 0, i32 2
  %167 = load ptr, ptr %166, align 8, !tbaa !19
  %168 = getelementptr inbounds nuw %struct.UConverter, ptr %167, i32 0, i32 30
  %169 = getelementptr inbounds [32 x i16], ptr %168, i64 0, i64 0
  store i16 %164, ptr %169, align 8, !tbaa !30
  %170 = load ptr, ptr %3, align 8, !tbaa !3
  %171 = getelementptr inbounds nuw %struct.UConverterToUnicodeArgs, ptr %170, i32 0, i32 2
  %172 = load ptr, ptr %171, align 8, !tbaa !19
  %173 = getelementptr inbounds nuw %struct.UConverter, ptr %172, i32 0, i32 23
  store i8 1, ptr %173, align 1, !tbaa !32
  %174 = load ptr, ptr %4, align 8, !tbaa !3
  store i32 15, ptr %174, align 4, !tbaa !33
  br label %189

175:                                              ; preds = %154
  br label %176

176:                                              ; preds = %175, %128
  br label %185

177:                                              ; preds = %121, %118
  %178 = load i32, ptr %12, align 4, !tbaa !25
  %179 = trunc i32 %178 to i8
  %180 = load ptr, ptr %3, align 8, !tbaa !3
  %181 = getelementptr inbounds nuw %struct.UConverterToUnicodeArgs, ptr %180, i32 0, i32 2
  %182 = load ptr, ptr %181, align 8, !tbaa !19
  %183 = getelementptr inbounds nuw %struct.UConverter, ptr %182, i32 0, i32 12
  store i8 %179, ptr %183, align 8, !tbaa !20
  %184 = load ptr, ptr %4, align 8, !tbaa !3
  store i32 12, ptr %184, align 4, !tbaa !33
  br label %189

185:                                              ; preds = %176
  %186 = load i32, ptr %12, align 4, !tbaa !25
  %187 = load i32, ptr %13, align 4, !tbaa !25
  %188 = add i32 %187, %186
  store i32 %188, ptr %13, align 4, !tbaa !25
  br label %67, !llvm.loop !58

189:                                              ; preds = %177, %162, %75
  br label %190

190:                                              ; preds = %189, %104
  %191 = load ptr, ptr %5, align 8, !tbaa !14
  %192 = load ptr, ptr %8, align 8, !tbaa !14
  %193 = icmp ult ptr %191, %192
  br i1 %193, label %194, label %205

194:                                              ; preds = %190
  %195 = load ptr, ptr %6, align 8, !tbaa !16
  %196 = load ptr, ptr %9, align 8, !tbaa !16
  %197 = icmp uge ptr %195, %196
  br i1 %197, label %198, label %205

198:                                              ; preds = %194
  %199 = load ptr, ptr %4, align 8, !tbaa !3
  %200 = load i32, ptr %199, align 4, !tbaa !33
  %201 = call noundef signext i8 @_ZL9U_SUCCESS10UErrorCode(i32 noundef %200)
  %202 = icmp ne i8 %201, 0
  br i1 %202, label %203, label %205

203:                                              ; preds = %198
  %204 = load ptr, ptr %4, align 8, !tbaa !3
  store i32 15, ptr %204, align 4, !tbaa !33
  br label %205

205:                                              ; preds = %203, %198, %194, %190
  %206 = load ptr, ptr %6, align 8, !tbaa !16
  %207 = load ptr, ptr %3, align 8, !tbaa !3
  %208 = getelementptr inbounds nuw %struct.UConverterToUnicodeArgs, ptr %207, i32 0, i32 5
  store ptr %206, ptr %208, align 8, !tbaa !15
  %209 = load ptr, ptr %5, align 8, !tbaa !14
  %210 = load ptr, ptr %3, align 8, !tbaa !3
  %211 = getelementptr inbounds nuw %struct.UConverterToUnicodeArgs, ptr %210, i32 0, i32 3
  store ptr %209, ptr %211, align 8, !tbaa !7
  %212 = load ptr, ptr %7, align 8, !tbaa !37
  %213 = load ptr, ptr %3, align 8, !tbaa !3
  %214 = getelementptr inbounds nuw %struct.UConverterToUnicodeArgs, ptr %213, i32 0, i32 7
  store ptr %212, ptr %214, align 8, !tbaa !36
  call void @llvm.lifetime.end.p0(i64 4, ptr %13) #6
  call void @llvm.lifetime.end.p0(i64 4, ptr %12) #6
  call void @llvm.lifetime.end.p0(i64 4, ptr %11) #6
  call void @llvm.lifetime.end.p0(i64 8, ptr %10) #6
  call void @llvm.lifetime.end.p0(i64 8, ptr %9) #6
  call void @llvm.lifetime.end.p0(i64 8, ptr %8) #6
  call void @llvm.lifetime.end.p0(i64 8, ptr %7) #6
  call void @llvm.lifetime.end.p0(i64 8, ptr %6) #6
  call void @llvm.lifetime.end.p0(i64 8, ptr %5) #6
  ret void
}