; Function Attrs: mustprogress nofree norecurse nosync nounwind memory(readwrite, inaccessiblemem: none) uwtable
define internal void @_ZL44T_UConverter_toUnicode_UTF32_LE_OFFSET_LOGICP23UConverterToUnicodeArgsP10UErrorCode(ptr noundef captures(none) %0, ptr noundef captures(none) %1) #0 {
  %3 = getelementptr inbounds nuw i8, ptr %0, i64 16
  %4 = load ptr, ptr %3, align 8, !tbaa !3
  %5 = getelementptr inbounds nuw i8, ptr %0, i64 32
  %6 = load ptr, ptr %5, align 8, !tbaa !13
  %7 = getelementptr inbounds nuw i8, ptr %0, i64 48
  %8 = load ptr, ptr %7, align 8, !tbaa !32
  %9 = getelementptr inbounds nuw i8, ptr %0, i64 24
  %10 = load ptr, ptr %9, align 8, !tbaa !14
  %11 = getelementptr inbounds nuw i8, ptr %0, i64 40
  %12 = load ptr, ptr %11, align 8, !tbaa !15
  %13 = getelementptr inbounds nuw i8, ptr %0, i64 8
  %14 = load ptr, ptr %13, align 8, !tbaa !16
  %15 = getelementptr inbounds nuw i8, ptr %14, i64 65
  %16 = getelementptr inbounds nuw i8, ptr %14, i64 64
  %17 = load i8, ptr %16, align 8, !tbaa !17
  %18 = icmp sgt i8 %17, 0
  %19 = icmp ult ptr %6, %12
  %or.cond = select i1 %18, i1 %19, i1 false
  br i1 %or.cond, label %20, label %25

20:                                               ; preds = %2
  %21 = zext nneg i8 %17 to i32
  store i8 0, ptr %16, align 8, !tbaa !17
  %22 = getelementptr inbounds nuw i8, ptr %14, i64 72
  %23 = load i32, ptr %22, align 8, !tbaa !22
  %24 = add i32 %23, -1
  store i32 0, ptr %22, align 8, !tbaa !22
  br label %29

25:                                               ; preds = %2, %77
  %.179 = phi ptr [ %.381, %77 ], [ %8, %2 ]
  %.175 = phi ptr [ %.377, %77 ], [ %6, %2 ]
  %.173 = phi ptr [ %.2.lcssa, %77 ], [ %4, %2 ]
  %.1 = phi i32 [ %78, %77 ], [ 0, %2 ]
  %26 = icmp ult ptr %.173, %10
  %27 = icmp ult ptr %.175, %12
  %28 = select i1 %26, i1 %27, i1 false
  br i1 %28, label %29, label %79

29:                                               ; preds = %25, %20
  %.078 = phi ptr [ %8, %20 ], [ %.179, %25 ]
  %.074 = phi ptr [ %6, %20 ], [ %.175, %25 ]
  %.072 = phi ptr [ %4, %20 ], [ %.173, %25 ]
  %.070 = phi i32 [ %24, %20 ], [ 0, %25 ]
  %.068 = phi i32 [ %21, %20 ], [ 0, %25 ]
  %.0 = phi i32 [ 0, %20 ], [ %.1, %25 ]
  %30 = icmp samesign ult i32 %.068, 4
  br i1 %30, label %.lr.ph.preheader, label %._crit_edge

.lr.ph.preheader:                                 ; preds = %29
  %31 = zext nneg i32 %.068 to i64
  br label %.lr.ph

.lr.ph:                                           ; preds = %.lr.ph.preheader, %33
  %indvars.iv = phi i64 [ %31, %.lr.ph.preheader ], [ %indvars.iv.next, %33 ]
  %.17196 = phi i32 [ %.070, %.lr.ph.preheader ], [ %38, %33 ]
  %.295 = phi ptr [ %.072, %.lr.ph.preheader ], [ %39, %33 ]
  %32 = icmp ult ptr %.295, %10
  br i1 %32, label %33, label %41

33:                                               ; preds = %.lr.ph
  %34 = load i8, ptr %.295, align 1, !tbaa !23
  %35 = zext i8 %34 to i32
  %indvars.iv.tr = trunc i64 %indvars.iv to i32
  %36 = shl i32 %indvars.iv.tr, 3
  %37 = shl nuw i32 %35, %36
  %38 = or i32 %37, %.17196
  %39 = getelementptr inbounds nuw i8, ptr %.295, i64 1
  %indvars.iv.next = add nuw nsw i64 %indvars.iv, 1
  %40 = getelementptr inbounds nuw i8, ptr %15, i64 %indvars.iv
  store i8 %34, ptr %40, align 1, !tbaa !23
  %exitcond.not = icmp eq i64 %indvars.iv.next, 4
  br i1 %exitcond.not, label %._crit_edge, label %.lr.ph, !llvm.loop !52

41:                                               ; preds = %.lr.ph
  %42 = add i32 %.17196, 1
  %43 = load ptr, ptr %13, align 8, !tbaa !16
  %44 = getelementptr inbounds nuw i8, ptr %43, i64 72
  store i32 %42, ptr %44, align 8, !tbaa !22
  %45 = trunc i64 %indvars.iv to i8
  %46 = getelementptr inbounds nuw i8, ptr %43, i64 64
  store i8 %45, ptr %46, align 8, !tbaa !17
  br label %79

._crit_edge:                                      ; preds = %33, %29
  %.2.lcssa = phi ptr [ %.072, %29 ], [ %39, %33 ]
  %.171.lcssa = phi i32 [ %.070, %29 ], [ %38, %33 ]
  %.169.lcssa = phi i32 [ %.068, %29 ], [ 4, %33 ]
  %47 = icmp ugt i32 %.171.lcssa, 1114111
  %48 = and i32 %.171.lcssa, 2095104
  %49 = icmp eq i32 %48, 55296
  %or.cond90 = or i1 %47, %49
  br i1 %or.cond90, label %73, label %50

50:                                               ; preds = %._crit_edge
  %51 = icmp samesign ult i32 %.171.lcssa, 65536
  br i1 %51, label %52, label %56

52:                                               ; preds = %50
  %53 = trunc nuw i32 %.171.lcssa to i16
  %54 = getelementptr inbounds nuw i8, ptr %.074, i64 2
  store i16 %53, ptr %.074, align 2, !tbaa !26
  %55 = getelementptr inbounds nuw i8, ptr %.078, i64 4
  store i32 %.0, ptr %.078, align 4, !tbaa !34
  br label %77

56:                                               ; preds = %50
  %57 = lshr i32 %.171.lcssa, 10
  %58 = trunc nuw i32 %57 to i16
  %59 = add nuw nsw i16 %58, -10304
  %60 = getelementptr inbounds nuw i8, ptr %.074, i64 2
  store i16 %59, ptr %.074, align 2, !tbaa !26
  %61 = getelementptr inbounds nuw i8, ptr %.078, i64 4
  store i32 %.0, ptr %.078, align 4, !tbaa !34
  %62 = trunc i32 %.171.lcssa to i16
  %63 = and i16 %62, 1023
  %64 = or disjoint i16 %63, -9216
  %65 = icmp ult ptr %60, %12
  br i1 %65, label %66, label %69

66:                                               ; preds = %56
  %67 = getelementptr inbounds nuw i8, ptr %.074, i64 4
  store i16 %64, ptr %60, align 2, !tbaa !26
  %68 = getelementptr inbounds nuw i8, ptr %.078, i64 8
  store i32 %.0, ptr %61, align 4, !tbaa !34
  br label %77

69:                                               ; preds = %56
  %70 = load ptr, ptr %13, align 8, !tbaa !16
  %71 = getelementptr inbounds nuw i8, ptr %70, i64 144
  store i16 %64, ptr %71, align 8, !tbaa !26
  %72 = getelementptr inbounds nuw i8, ptr %70, i64 93
  store i8 1, ptr %72, align 1, !tbaa !29
  store i32 15, ptr %1, align 4, !tbaa !30
  br label %79

73:                                               ; preds = %._crit_edge
  %74 = trunc nuw nsw i32 %.169.lcssa to i8
  %75 = load ptr, ptr %13, align 8, !tbaa !16
  %76 = getelementptr inbounds nuw i8, ptr %75, i64 64
  store i8 %74, ptr %76, align 8, !tbaa !17
  store i32 12, ptr %1, align 4, !tbaa !30
  br label %79

77:                                               ; preds = %52, %66
  %.381 = phi ptr [ %55, %52 ], [ %68, %66 ]
  %.377 = phi ptr [ %54, %52 ], [ %67, %66 ]
  %78 = add i32 %.169.lcssa, %.0
  br label %25, !llvm.loop !53

79:                                               ; preds = %25, %69, %73, %41
  %.280 = phi ptr [ %.078, %41 ], [ %.078, %73 ], [ %.179, %25 ], [ %61, %69 ]
  %.276 = phi ptr [ %.074, %41 ], [ %.074, %73 ], [ %.175, %25 ], [ %60, %69 ]
  %.3 = phi ptr [ %.295, %41 ], [ %.2.lcssa, %73 ], [ %.173, %25 ], [ %.2.lcssa, %69 ]
  %80 = icmp uge ptr %.3, %10
  %.not = icmp ult ptr %.276, %12
  %or.cond91 = select i1 %80, i1 true, i1 %.not
  br i1 %or.cond91, label %85, label %81

81:                                               ; preds = %79
  %82 = load i32, ptr %1, align 4, !tbaa !30
  %83 = icmp sgt i32 %82, 0
  br i1 %83, label %85, label %84

84:                                               ; preds = %81
  store i32 15, ptr %1, align 4, !tbaa !30
  br label %85

85:                                               ; preds = %84, %81, %79
  store ptr %.276, ptr %5, align 8, !tbaa !13
  store ptr %.3, ptr %3, align 8, !tbaa !3
  store ptr %.280, ptr %7, align 8, !tbaa !32
  ret void
}